#include <math.h>
#include <stdio.h>
#include <stdlib.h>
#include <string.h>

int main()
{
	int  k=0,o=0,i=0,j=0,m=0,n=0,num=0,sum=0;
	scanf("%d",&k);
	for(o=0;o<k;o++)
	{
		scanf("%d%d",&m,&n);
		for(i=0;i<m;i++)
		{
			for(j=0;j<n;j++)
			{
				scanf("%d",&num);
            	if(i==0||i==m-1||j==0||j==n-1)
				{
		        	sum=sum+num;
				}
			}
		}
		printf("%d\n",sum);
		sum=0;
	}
	return 0;
}


